Certificate:
    Data:
        Version: 3 (0x2)
        Serial Number: 0 (0x0)
    Signature Algorithm: sha1WithRSAEncryption
        Issuer: C=CN, ST=NO.170 Bei Yuan Road,Chao Yang District, L=Beijing, O=Jet Cloud Technologies Co., Ltd., OU=Technical, CN=192.168.1.110
        Validity
            Not Before: Jun 28 03:27:35 2014 GMT
            Not After : Jun 27 03:27:35 2017 GMT
        Subject: C=CN, ST=NO.170 Bei Yuan Road,Chao Yang District, O=Jet Cloud Technologies Co., Ltd., OU=Technical, CN=192.168.1.110
        Subject Public Key Info:
            Public Key Algorithm: rsaEncryption
                Public-Key: (1024 bit)
                Modulus:
                    00:b6:31:b0:ca:9b:10:4e:0e:7a:01:34:85:5e:ab:
                    1f:c3:96:b3:f2:0f:76:73:b4:fb:4e:c8:96:be:a9:
                    b1:3d:9e:5e:f7:be:fa:d3:78:90:5a:0b:25:f3:ba:
                    36:3c:e2:af:10:d7:b1:06:bd:65:25:10:e4:89:6c:
                    64:c8:64:5a:4f:30:2b:8d:b8:20:46:3e:65:db:e0:
                    ea:f3:34:ef:9b:7e:6b:02:36:78:b0:74:cb:24:ae:
                    9f:87:3f:d4:68:f2:1b:0e:5f:8f:e1:97:5b:7b:0e:
                    9f:20:e9:3a:ce:c5:10:27:a3:d0:ee:26:c6:c2:10:
                    91:ae:1f:85:02:25:d7:da:27
                Exponent: 65537 (0x10001)
        X509v3 extensions:
            X509v3 Basic Constraints: 
                CA:FALSE
            Netscape Comment: 
                OpenSSL Generated Certificate
            X509v3 Subject Key Identifier: 
                8F:2F:90:62:33:4B:CA:60:37:0F:0A:0D:BA:77:D5:63:76:23:B7:4A
            X509v3 Authority Key Identifier: 
                keyid:FF:92:99:27:1F:0B:EE:0F:67:F4:22:23:97:49:EF:ED:B1:BA:0F:BD

    Signature Algorithm: sha1WithRSAEncryption
         57:9f:71:c0:ff:29:7a:d8:ab:08:f9:ea:ce:26:97:4b:e0:b0:
         21:9b:1b:f6:2e:85:bc:1d:b1:af:d2:38:fa:ff:fe:d5:f1:b4:
         70:ae:5e:1c:8e:00:34:39:4b:f7:f8:06:bd:d5:28:5a:a1:16:
         1f:82:9c:c6:f8:f2:70:72:92:fb:c3:a0:66:95:18:05:74:20:
         1f:3b:1e:7f:bc:3c:98:e8:f3:17:c3:7e:c2:e4:fa:13:b0:25:
         fe:cd:21:df:f5:7f:54:99:60:50:d6:00:ec:3c:40:dc:a3:f0:
         a3:e0:c1:f5:3f:6d:9a:89:b2:bf:e8:4d:ed:b9:60:28:69:66:
         f6:35
-----BEGIN CERTIFICATE-----
MIIDMTCCApqgAwIBAgIBADANBgkqhkiG9w0BAQUFADCBqDELMAkGA1UEBhMCQ04x
MDAuBgNVBAgMJ05PLjE3MCBCZWkgWXVhbiBSb2FkLENoYW8gWWFuZyBEaXN0cmlj
dDEQMA4GA1UEBwwHQmVpamluZzEpMCcGA1UECgwgSmV0IENsb3VkIFRlY2hub2xv
Z2llcyBDby4sIEx0ZC4xEjAQBgNVBAsMCVRlY2huaWNhbDEWMBQGA1UEAwwNMTky
LjE2OC4xLjExMDAeFw0xNDA2MjgwMzI3MzVaFw0xNzA2MjcwMzI3MzVaMIGWMQsw
CQYDVQQGEwJDTjEwMC4GA1UECAwnTk8uMTcwIEJlaSBZdWFuIFJvYWQsQ2hhbyBZ
YW5nIERpc3RyaWN0MSkwJwYDVQQKDCBKZXQgQ2xvdWQgVGVjaG5vbG9naWVzIENv
LiwgTHRkLjESMBAGA1UECwwJVGVjaG5pY2FsMRYwFAYDVQQDDA0xOTIuMTY4LjEu
MTEwMIGfMA0GCSqGSIb3DQEBAQUAA4GNADCBiQKBgQC2MbDKmxBODnoBNIVeqx/D
lrPyD3ZztPtOyJa+qbE9nl73vvrTeJBaCyXzujY84q8Q17EGvWUlEOSJbGTIZFpP
MCuNuCBGPmXb4OrzNO+bfmsCNniwdMskrp+HP9Ro8hsOX4/hl1t7Dp8g6TrOxRAn
o9DuJsbCEJGuH4UCJdfaJwIDAQABo3sweTAJBgNVHRMEAjAAMCwGCWCGSAGG+EIB
DQQfFh1PcGVuU1NMIEdlbmVyYXRlZCBDZXJ0aWZpY2F0ZTAdBgNVHQ4EFgQUjy+Q
YjNLymA3DwoNunfVY3Yjt0owHwYDVR0jBBgwFoAU/5KZJx8L7g9n9CIjl0nv7bG6
D70wDQYJKoZIhvcNAQEFBQADgYEAV59xwP8petirCPnqziaXS+CwIZsb9i6FvB2x
r9I4+v/+1fG0cK5eHI4ANDlL9/gGvdUoWqEWH4KcxvjycHKS+8OgZpUYBXQgHzse
f7w8mOjzF8N+wuT6E7Al/s0h3/V/VJlgUNYA7DxA3KPwo+DB9T9tmomyv+hN7blg
KGlm9jU=
-----END CERTIFICATE-----
