Certificate:
    Data:
        Version: 3 (0x2)
        Serial Number: 0 (0x0)
    Signature Algorithm: sha1WithRSAEncryption
        Issuer: C=CN, ST=NO.170 Bei Yuan Road,Chao Yang District, L=Beijing, O=Jet Cloud Technologies Co., Ltd., OU=Technical, CN=127.0.0.1
        Validity
            Not Before: Jun 28 07:08:51 2014 GMT
            Not After : Jun 27 07:08:51 2017 GMT
        Subject: C=CN, ST=NO.170 Bei Yuan Road,Chao Yang District, O=Jet Cloud Technologies Co., Ltd., OU=Technical, CN=127.0.0.1
        Subject Public Key Info:
            Public Key Algorithm: rsaEncryption
                Public-Key: (1024 bit)
                Modulus:
                    00:d0:f4:af:20:91:ae:43:5a:e4:4d:d7:60:9c:35:
                    92:75:4e:75:f4:03:21:fa:9e:34:e0:6e:a0:d6:7f:
                    6b:4e:84:ef:f3:5a:06:9d:2a:1f:57:b3:bb:bc:28:
                    cc:33:5b:93:98:1c:c7:03:14:da:e6:a6:8e:97:3f:
                    75:ea:c3:69:de:a0:3e:3c:3a:38:31:84:86:88:2c:
                    8c:87:bd:8e:d3:41:c9:86:87:52:88:49:1f:56:72:
                    17:be:7b:3e:b0:c1:f0:3d:72:ac:0c:20:fd:8d:5e:
                    0d:b3:9b:64:da:a0:11:00:0f:f3:ea:bd:93:fa:77:
                    e4:fc:98:33:24:3f:9c:36:f9
                Exponent: 65537 (0x10001)
        X509v3 extensions:
            X509v3 Basic Constraints: 
                CA:FALSE
            Netscape Comment: 
                OpenSSL Generated Certificate
            X509v3 Subject Key Identifier: 
                79:40:47:AB:CA:FC:7D:78:AA:4F:A2:CA:FF:6D:2A:17:8D:A0:1E:EA
            X509v3 Authority Key Identifier: 
                keyid:03:E0:42:3D:48:20:FE:09:A6:11:CF:8E:83:B9:A2:87:36:AC:96:90

    Signature Algorithm: sha1WithRSAEncryption
         65:2b:92:11:6f:7a:9e:4f:ab:de:56:0b:da:b0:a8:3c:20:0b:
         4b:6a:3a:1f:6b:78:33:54:89:2e:ca:88:15:ed:73:6f:f3:c9:
         ff:3e:e7:07:e0:0d:c3:e3:3f:4b:2d:49:95:20:9c:c3:8a:f0:
         0e:64:9a:0a:7d:f3:bd:8e:af:7a:ff:e6:1a:3c:8b:3a:9c:a5:
         88:ce:af:71:a5:52:52:bd:5e:1b:c1:fe:80:18:3a:12:12:f8:
         54:fb:73:48:a7:ab:36:0c:95:c0:7f:73:9d:84:18:82:58:03:
         0b:9f:04:46:3f:97:ca:a9:a5:e9:99:f3:32:dd:ee:f6:e4:f3:
         b8:3c
-----BEGIN CERTIFICATE-----
MIIDKTCCApKgAwIBAgIBADANBgkqhkiG9w0BAQUFADCBpDELMAkGA1UEBhMCQ04x
MDAuBgNVBAgMJ05PLjE3MCBCZWkgWXVhbiBSb2FkLENoYW8gWWFuZyBEaXN0cmlj
dDEQMA4GA1UEBwwHQmVpamluZzEpMCcGA1UECgwgSmV0IENsb3VkIFRlY2hub2xv
Z2llcyBDby4sIEx0ZC4xEjAQBgNVBAsMCVRlY2huaWNhbDESMBAGA1UEAwwJMTI3
LjAuMC4xMB4XDTE0MDYyODA3MDg1MVoXDTE3MDYyNzA3MDg1MVowgZIxCzAJBgNV
BAYTAkNOMTAwLgYDVQQIDCdOTy4xNzAgQmVpIFl1YW4gUm9hZCxDaGFvIFlhbmcg
RGlzdHJpY3QxKTAnBgNVBAoMIEpldCBDbG91ZCBUZWNobm9sb2dpZXMgQ28uLCBM
dGQuMRIwEAYDVQQLDAlUZWNobmljYWwxEjAQBgNVBAMMCTEyNy4wLjAuMTCBnzAN
BgkqhkiG9w0BAQEFAAOBjQAwgYkCgYEA0PSvIJGuQ1rkTddgnDWSdU519AMh+p40
4G6g1n9rToTv81oGnSofV7O7vCjMM1uTmBzHAxTa5qaOlz916sNp3qA+PDo4MYSG
iCyMh72O00HJhodSiEkfVnIXvns+sMHwPXKsDCD9jV4Ns5tk2qARAA/z6r2T+nfk
/JgzJD+cNvkCAwEAAaN7MHkwCQYDVR0TBAIwADAsBglghkgBhvhCAQ0EHxYdT3Bl
blNTTCBHZW5lcmF0ZWQgQ2VydGlmaWNhdGUwHQYDVR0OBBYEFHlAR6vK/H14qk+i
yv9tKheNoB7qMB8GA1UdIwQYMBaAFAPgQj1IIP4JphHPjoO5ooc2rJaQMA0GCSqG
SIb3DQEBBQUAA4GBAGUrkhFvep5Pq95WC9qwqDwgC0tqOh9reDNUiS7KiBXtc2/z
yf8+5wfgDcPjP0stSZUgnMOK8A5kmgp9872Or3r/5ho8izqcpYjOr3GlUlK9XhvB
/oAYOhIS+FT7c0inqzYMlcB/c52EGIJYAwufBEY/l8qppemZ8zLd7vbk87g8
-----END CERTIFICATE-----
